; Function Attrs: mustprogress uwtable
define dso_local void @_ZN17cmGlobalGenerator20CreateLocalGeneratorEP10cmMakefile(ptr dead_on_unwind noalias nocapture writable writeonly sret(%"class.std::unique_ptr.569") align 8 %0, ptr noundef nonnull align 8 dereferenceable(1778) %1, ptr noundef %2) unnamed_addr #3 align 2 personality ptr @__gxx_personality_v0 {
  tail call void @llvm.experimental.noalias.scope.decl(metadata !711)
  %4 = tail call noalias noundef nonnull dereferenceable(824) ptr @_Znwm(i64 noundef 824) #27, !noalias !711
  invoke void @_ZN16cmLocalGeneratorC1EP17cmGlobalGeneratorP10cmMakefile(ptr noundef nonnull align 8 dereferenceable(824) %4, ptr noundef nonnull %1, ptr noundef %2)
          to label %_ZSt11make_uniqueI16cmLocalGeneratorJP17cmGlobalGeneratorRP10cmMakefileEENSt8__detail9_MakeUniqIT_E15__single_objectEDpOT0_.exit unwind label %5, !noalias !711

5:                                                ; preds = %3
  %6 = landingpad { ptr, i32 }
          cleanup
  tail call void @_ZdlPv(ptr noundef nonnull %4) #26, !noalias !711
  resume { ptr, i32 } %6

_ZSt11make_uniqueI16cmLocalGeneratorJP17cmGlobalGeneratorRP10cmMakefileEENSt8__detail9_MakeUniqIT_E15__single_objectEDpOT0_.exit: ; preds = %3
  store ptr %4, ptr %0, align 8, !alias.scope !711
  ret void
}